target datalayout = "e-m:e-p270:32:32-p271:32:32-p272:64:64-i64:64-i128:128-f80:128-n8:16:32:64-S128"
target triple = "x86_64-pc-linux-gnu"

%"class.net::QuicTime" = type { i64 }
%"class.net::QuicFramer" = type { ptr, %"class.std::__cxx11::basic_string", ptr, ptr, i32, %"class.std::unordered_set", %"class.std::unordered_map", i64, %"class.std::unordered_map", i64, i8, i64, i32, i32, %"class.std::vector", %"class.std::unique_ptr", %"class.std::unique_ptr", i8, i8, i8, [3 x %"class.std::unique_ptr.23"], i32, i8, %"class.net::QuicTime", %"class.net::QuicTime::Delta", %"struct.std::array" }
%"class.std::__cxx11::basic_string" = type { %"struct.std::__cxx11::basic_string<char>::_Alloc_hider", i64, %union.anon }
%"struct.std::__cxx11::basic_string<char>::_Alloc_hider" = type { ptr }
%union.anon = type { i64, [8 x i8] }
%"class.std::unordered_set" = type { %"class.std::_Hashtable" }
%"class.std::_Hashtable" = type { ptr, i64, %"struct.std::__detail::_Hash_node_base", i64, %"struct.std::__detail::_Prime_rehash_policy", ptr }
%"struct.std::__detail::_Hash_node_base" = type { ptr }
%"struct.std::__detail::_Prime_rehash_policy" = type { float, i64 }
%"class.std::unordered_map" = type { %"class.std::_Hashtable.5" }
%"class.std::_Hashtable.5" = type { ptr, i64, %"struct.std::__detail::_Hash_node_base", i64, %"struct.std::__detail::_Prime_rehash_policy", ptr }
%"class.std::vector" = type { %"struct.std::_Vector_base" }
%"struct.std::_Vector_base" = type { %"struct.std::_Vector_base<net::QuicVersion, std::allocator<net::QuicVersion>>::_Vector_impl" }
%"struct.std::_Vector_base<net::QuicVersion, std::allocator<net::QuicVersion>>::_Vector_impl" = type { %"struct.std::_Vector_base<net::QuicVersion, std::allocator<net::QuicVersion>>::_Vector_impl_data" }
%"struct.std::_Vector_base<net::QuicVersion, std::allocator<net::QuicVersion>>::_Vector_impl_data" = type { ptr, ptr, ptr }
%"class.std::unique_ptr" = type { %"struct.std::__uniq_ptr_data" }
%"struct.std::__uniq_ptr_data" = type { %"class.std::__uniq_ptr_impl" }
%"class.std::__uniq_ptr_impl" = type { %"class.std::tuple" }
%"class.std::tuple" = type { %"struct.std::_Tuple_impl" }
%"struct.std::_Tuple_impl" = type { %"struct.std::_Head_base.22" }
%"struct.std::_Head_base.22" = type { ptr }
%"class.std::unique_ptr.23" = type { %"struct.std::__uniq_ptr_data.24" }
%"struct.std::__uniq_ptr_data.24" = type { %"class.std::__uniq_ptr_impl.25" }
%"class.std::__uniq_ptr_impl.25" = type { %"class.std::tuple.26" }
%"class.std::tuple.26" = type { %"struct.std::_Tuple_impl.27" }
%"struct.std::_Tuple_impl.27" = type { %"struct.std::_Head_base.30" }
%"struct.std::_Head_base.30" = type { ptr }
%"class.net::QuicTime::Delta" = type { %"class.base::TimeDelta", i64 }
%"class.base::TimeDelta" = type { i64 }
%"struct.std::array" = type { [32 x i8] }
%"class.base::BasicStringPiece" = type { ptr, i64 }

; Function Attrs: mustprogress nounwind uwtable
define linkonce_odr noundef nonnull align 8 dereferenceable(8) ptr @_ZNSt10_Head_baseILm0EPN3net13QuicEncrypterELb0EE7_M_headERKS3_(ptr noundef nonnull align 8 dereferenceable(8) %0) #1 comdat align 2 {
  %2 = alloca ptr, align 8
  store ptr %0, ptr %2, align 8, !tbaa !451
  %3 = load ptr, ptr %2, align 8, !tbaa !451
  %4 = getelementptr inbounds nuw %"struct.std::_Head_base.30", ptr %3, i32 0, i32 0
  ret ptr %4
}

; Function Attrs: mustprogress nounwind uwtable
define linkonce_odr noundef nonnull align 8 dereferenceable(8) ptr @_ZNSt11_Tuple_implILm0EJPN3net13QuicEncrypterESt14default_deleteIS1_EEE7_M_headERKS5_(ptr noundef nonnull align 8 dereferenceable(8) %0) #1 comdat align 2 {
  %2 = alloca ptr, align 8
  store ptr %0, ptr %2, align 8, !tbaa !447
  %3 = load ptr, ptr %2, align 8, !tbaa !447
  %4 = call noundef nonnull align 8 dereferenceable(8) ptr @_ZNSt10_Head_baseILm0EPN3net13QuicEncrypterELb0EE7_M_headERKS3_(ptr noundef nonnull align 8 dereferenceable(8) %3) #17
  ret ptr %4
}

; Function Attrs: mustprogress nounwind uwtable
define linkonce_odr noundef nonnull align 8 dereferenceable(8) ptr @_ZSt12__get_helperILm0EPN3net13QuicEncrypterEJSt14default_deleteIS1_EEERKT0_RKSt11_Tuple_implIXT_EJS5_DpT1_EE(ptr noundef nonnull align 8 dereferenceable(8) %0) #1 comdat {
  %2 = alloca ptr, align 8
  store ptr %0, ptr %2, align 8, !tbaa !447
  %3 = load ptr, ptr %2, align 8, !tbaa !447
  %4 = call noundef nonnull align 8 dereferenceable(8) ptr @_ZNSt11_Tuple_implILm0EJPN3net13QuicEncrypterESt14default_deleteIS1_EEE7_M_headERKS5_(ptr noundef nonnull align 8 dereferenceable(8) %3) #17
  ret ptr %4
}

; Function Attrs: mustprogress nounwind uwtable
define linkonce_odr noundef nonnull align 8 dereferenceable(8) ptr @_ZSt3getILm0EJPN3net13QuicEncrypterESt14default_deleteIS1_EEERKNSt13tuple_elementIXT_ESt5tupleIJDpT0_EEE4typeERKS9_(ptr noundef nonnull align 8 dereferenceable(8) %0) #1 comdat {
  %2 = alloca ptr, align 8
  store ptr %0, ptr %2, align 8, !tbaa !445
  %3 = load ptr, ptr %2, align 8, !tbaa !445
  %4 = call noundef nonnull align 8 dereferenceable(8) ptr @_ZSt12__get_helperILm0EPN3net13QuicEncrypterEJSt14default_deleteIS1_EEERKT0_RKSt11_Tuple_implIXT_EJS5_DpT1_EE(ptr noundef nonnull align 8 dereferenceable(8) %3) #17
  ret ptr %4
}

; Function Attrs: mustprogress nounwind uwtable
define linkonce_odr noundef ptr @_ZNKSt15__uniq_ptr_implIN3net13QuicEncrypterESt14default_deleteIS1_EE6_M_ptrEv(ptr noundef nonnull align 8 dereferenceable(8) %0) #1 comdat align 2 {
  %2 = alloca ptr, align 8
  store ptr %0, ptr %2, align 8, !tbaa !443
  %3 = load ptr, ptr %2, align 8
  %4 = getelementptr inbounds nuw %"class.std::__uniq_ptr_impl.25", ptr %3, i32 0, i32 0
  %5 = call noundef nonnull align 8 dereferenceable(8) ptr @_ZSt3getILm0EJPN3net13QuicEncrypterESt14default_deleteIS1_EEERKNSt13tuple_elementIXT_ESt5tupleIJDpT0_EEE4typeERKS9_(ptr noundef nonnull align 8 dereferenceable(8) %4) #17
  %6 = load ptr, ptr %5, align 8, !tbaa !79
  ret ptr %6
}

; Function Attrs: mustprogress nounwind uwtable
define linkonce_odr void @_ZN3net10QuicFramer9set_errorENS_13QuicErrorCodeE(ptr noundef nonnull align 8 dereferenceable(408) %0, i32 noundef %1) #1 comdat align 2 {
  %3 = alloca ptr, align 8
  %4 = alloca i32, align 4
  store ptr %0, ptr %3, align 8, !tbaa !3
  store i32 %1, ptr %4, align 4, !tbaa !108
  %5 = load ptr, ptr %3, align 8
  %6 = load i32, ptr %4, align 4, !tbaa !108
  %7 = getelementptr inbounds nuw %"class.net::QuicFramer", ptr %5, i32 0, i32 4
  store i32 %6, ptr %7, align 8, !tbaa !52
  ret void
}

; Function Attrs: mustprogress nounwind uwtable
define linkonce_odr noundef ptr @_ZNKSt10unique_ptrIN3net13QuicEncrypterESt14default_deleteIS1_EE3getEv(ptr noundef nonnull align 8 dereferenceable(8) %0) #1 comdat align 2 {
  %2 = alloca ptr, align 8
  store ptr %0, ptr %2, align 8, !tbaa !76
  %3 = load ptr, ptr %2, align 8
  %4 = getelementptr inbounds nuw %"class.std::unique_ptr.23", ptr %3, i32 0, i32 0
  %5 = call noundef ptr @_ZNKSt15__uniq_ptr_implIN3net13QuicEncrypterESt14default_deleteIS1_EE6_M_ptrEv(ptr noundef nonnull align 8 dereferenceable(8) %4) #17
  ret ptr %5
}

; Function Attrs: mustprogress uwtable
define noundef zeroext i1 @_ZN3net10QuicFramer10RaiseErrorENS_13QuicErrorCodeE(ptr noundef nonnull align 8 dereferenceable(408) %0, i32 noundef %1) #0 align 2 {
  %3 = alloca ptr, align 8
  %4 = alloca i32, align 4
  store ptr %0, ptr %3, align 8, !tbaa !3
  store i32 %1, ptr %4, align 4, !tbaa !108
  %5 = load ptr, ptr %3, align 8
  %6 = load i32, ptr %4, align 4, !tbaa !108
  call void @_ZN3net10QuicFramer9set_errorENS_13QuicErrorCodeE(ptr noundef nonnull align 8 dereferenceable(408) %5, i32 noundef %6)
  %7 = getelementptr inbounds nuw %"class.net::QuicFramer", ptr %5, i32 0, i32 2
  %8 = load ptr, ptr %7, align 8, !tbaa !14
  %9 = load ptr, ptr %8, align 8, !tbaa !12
  %10 = getelementptr inbounds ptr, ptr %9, i64 2
  %11 = load ptr, ptr %10, align 8
  call void %11(ptr noundef nonnull align 8 dereferenceable(8) %8, ptr noundef %5)
  ret i1 false
}

; Function Attrs: mustprogress nounwind uwtable
define available_externally void @_ZN4base16BasicStringPieceINSt7__cxx1112basic_stringIcSt11char_traitsIcESaIcEEEEC2EPKcm(ptr noundef nonnull align 8 dereferenceable(16) %0, ptr noundef %1, i64 noundef %2) unnamed_addr #1 align 2 {
  %4 = alloca ptr, align 8
  %5 = alloca ptr, align 8
  %6 = alloca i64, align 8
  store ptr %0, ptr %4, align 8, !tbaa !276
  store ptr %1, ptr %5, align 8, !tbaa !98
  store i64 %2, ptr %6, align 8, !tbaa !63
  %7 = load ptr, ptr %4, align 8
  %8 = getelementptr inbounds nuw %"class.base::BasicStringPiece", ptr %7, i32 0, i32 0
  %9 = load ptr, ptr %5, align 8, !tbaa !98
  store ptr %9, ptr %8, align 8, !tbaa !278
  %10 = getelementptr inbounds nuw %"class.base::BasicStringPiece", ptr %7, i32 0, i32 1
  %11 = load i64, ptr %6, align 8, !tbaa !63
  store i64 %11, ptr %10, align 8, !tbaa !280
  ret void
}

; Function Attrs: mustprogress nounwind uwtable
define linkonce_odr noundef ptr @_ZNKSt10unique_ptrIN3net13QuicEncrypterESt14default_deleteIS1_EEptEv(ptr noundef nonnull align 8 dereferenceable(8) %0) #1 comdat align 2 {
  %2 = alloca ptr, align 8
  store ptr %0, ptr %2, align 8, !tbaa !76
  %3 = load ptr, ptr %2, align 8
  %4 = call noundef ptr @_ZNKSt10unique_ptrIN3net13QuicEncrypterESt14default_deleteIS1_EE3getEv(ptr noundef nonnull align 8 dereferenceable(8) %3) #17
  ret ptr %4
}

; Function Attrs: mustprogress uwtable
define noundef i64 @_ZN3net10QuicFramer14EncryptInPlaceENS_15EncryptionLevelEhmmmmPc(ptr noundef nonnull align 8 dereferenceable(408) %0, i8 noundef signext %1, i8 noundef zeroext %2, i64 noundef %3, i64 noundef %4, i64 noundef %5, i64 noundef %6, ptr noundef %7) #0 align 2 {
  %9 = alloca i64, align 8
  %10 = alloca ptr, align 8
  %11 = alloca i8, align 1
  %12 = alloca i8, align 1
  %13 = alloca i64, align 8
  %14 = alloca i64, align 8
  %15 = alloca i64, align 8
  %16 = alloca i64, align 8
  %17 = alloca ptr, align 8
  %18 = alloca i64, align 8
  %19 = alloca %"class.base::BasicStringPiece", align 8
  %20 = alloca %"class.base::BasicStringPiece", align 8
  %21 = alloca i32, align 4
  store ptr %0, ptr %10, align 8, !tbaa !3
  store i8 %1, ptr %11, align 1, !tbaa !313
  store i8 %2, ptr %12, align 1, !tbaa !107
  store i64 %3, ptr %13, align 8, !tbaa !63
  store i64 %4, ptr %14, align 8, !tbaa !63
  store i64 %5, ptr %15, align 8, !tbaa !63
  store i64 %6, ptr %16, align 8, !tbaa !63
  store ptr %7, ptr %17, align 8, !tbaa !98
  %22 = load ptr, ptr %10, align 8
  call void @llvm.lifetime.start.p0(i64 8, ptr %18) #17
  store i64 0, ptr %18, align 8, !tbaa !63
  %23 = getelementptr inbounds nuw %"class.net::QuicFramer", ptr %22, i32 0, i32 20
  %24 = load i8, ptr %11, align 1, !tbaa !313
  %25 = sext i8 %24 to i64
  %26 = getelementptr inbounds [3 x %"class.std::unique_ptr.23"], ptr %23, i64 0, i64 %25
  %27 = call noundef ptr @_ZNKSt10unique_ptrIN3net13QuicEncrypterESt14default_deleteIS1_EEptEv(ptr noundef nonnull align 8 dereferenceable(8) %26) #17
  %28 = load i8, ptr %12, align 1, !tbaa !107
  %29 = load i64, ptr %13, align 8, !tbaa !63
  %30 = load ptr, ptr %17, align 8, !tbaa !98
  %31 = load i64, ptr %14, align 8, !tbaa !63
  call void @_ZN4base16BasicStringPieceINSt7__cxx1112basic_stringIcSt11char_traitsIcESaIcEEEEC2EPKcm(ptr noundef nonnull align 8 dereferenceable(16) %19, ptr noundef %30, i64 noundef %31)
  %32 = load ptr, ptr %17, align 8, !tbaa !98
  %33 = load i64, ptr %14, align 8, !tbaa !63
  %34 = getelementptr inbounds nuw i8, ptr %32, i64 %33
  %35 = load i64, ptr %15, align 8, !tbaa !63
  %36 = load i64, ptr %14, align 8, !tbaa !63
  %37 = sub i64 %35, %36
  call void @_ZN4base16BasicStringPieceINSt7__cxx1112basic_stringIcSt11char_traitsIcESaIcEEEEC2EPKcm(ptr noundef nonnull align 8 dereferenceable(16) %20, ptr noundef %34, i64 noundef %37)
  %38 = load ptr, ptr %17, align 8, !tbaa !98
  %39 = load i64, ptr %14, align 8, !tbaa !63
  %40 = getelementptr inbounds nuw i8, ptr %38, i64 %39
  %41 = load i64, ptr %16, align 8, !tbaa !63
  %42 = load i64, ptr %14, align 8, !tbaa !63
  %43 = sub i64 %41, %42
  %44 = getelementptr inbounds nuw { ptr, i64 }, ptr %19, i32 0, i32 0
  %45 = load ptr, ptr %44, align 8
  %46 = getelementptr inbounds nuw { ptr, i64 }, ptr %19, i32 0, i32 1
  %47 = load i64, ptr %46, align 8
  %48 = load ptr, ptr %27, align 8, !tbaa !12
  %49 = getelementptr inbounds ptr, ptr %48, i64 4
  %50 = load ptr, ptr %49, align 8
  %51 = call noundef zeroext i1 %50(ptr noundef nonnull align 8 dereferenceable(8) %27, i8 noundef zeroext %28, i64 noundef %29, ptr %45, i64 %47, ptr noundef byval(%"class.base::BasicStringPiece") align 8 %20, ptr noundef %40, ptr noundef %18, i64 noundef %43)
  %52 = xor i1 %51, true
  br i1 %52, label %53, label %55

53:                                               ; preds = %8
  %54 = call noundef zeroext i1 @_ZN3net10QuicFramer10RaiseErrorENS_13QuicErrorCodeE(ptr noundef nonnull align 8 dereferenceable(408) %22, i32 noundef 13)
  store i64 0, ptr %9, align 8
  store i32 1, ptr %21, align 4
  br label %59

55:                                               ; preds = %8
  %56 = load i64, ptr %14, align 8, !tbaa !63
  %57 = load i64, ptr %18, align 8, !tbaa !63
  %58 = add i64 %56, %57
  store i64 %58, ptr %9, align 8
  store i32 1, ptr %21, align 4
  br label %59

59:                                               ; preds = %55, %53
  call void @llvm.lifetime.end.p0(i64 8, ptr %18) #17
  %60 = load i64, ptr %9, align 8
  ret i64 %60
}