; Function Attrs: mustprogress uwtable
define noundef i64 @_ZN3net10QuicFramer14EncryptInPlaceENS_15EncryptionLevelEhmmmmPc(ptr noundef nonnull align 8 dereferenceable(408) %0, i8 noundef signext %1, i8 noundef zeroext %2, i64 noundef %3, i64 noundef %4, i64 noundef %5, i64 noundef %6, ptr noundef %7) local_unnamed_addr #0 align 2 {
  %9 = alloca i64, align 8
  %10 = alloca %"class.base::BasicStringPiece", align 8
  call void @llvm.lifetime.start.p0(i64 8, ptr nonnull %9) #26
  store i64 0, ptr %9, align 8, !tbaa !65
  %11 = getelementptr inbounds nuw i8, ptr %0, i64 320
  %12 = sext i8 %1 to i64
  %13 = getelementptr inbounds [3 x %"class.std::unique_ptr.23"], ptr %11, i64 0, i64 %12
  %14 = load ptr, ptr %13, align 8, !tbaa !69
  %15 = getelementptr inbounds nuw i8, ptr %7, i64 %4
  %16 = sub i64 %5, %4
  store ptr %15, ptr %10, align 8, !tbaa !263
  %17 = getelementptr inbounds nuw i8, ptr %10, i64 8
  store i64 %16, ptr %17, align 8, !tbaa !265
  %18 = sub i64 %6, %4
  %19 = load ptr, ptr %14, align 8, !tbaa !3
  %20 = getelementptr inbounds nuw i8, ptr %19, i64 32
  %21 = load ptr, ptr %20, align 8
  %22 = call noundef zeroext i1 %21(ptr noundef nonnull align 8 dereferenceable(8) %14, i8 noundef zeroext %2, i64 noundef %3, ptr %7, i64 %4, ptr noundef nonnull byval(%"class.base::BasicStringPiece") align 8 %10, ptr noundef %15, ptr noundef nonnull %9, i64 noundef %18)
  br i1 %22, label %30, label %23

23:                                               ; preds = %8
  %24 = getelementptr inbounds nuw i8, ptr %0, i64 56
  store i32 13, ptr %24, align 8, !tbaa !92
  %25 = getelementptr inbounds nuw i8, ptr %0, i64 40
  %26 = load ptr, ptr %25, align 8, !tbaa !93
  %27 = load ptr, ptr %26, align 8, !tbaa !3
  %28 = getelementptr inbounds nuw i8, ptr %27, i64 16
  %29 = load ptr, ptr %28, align 8
  call void %29(ptr noundef nonnull align 8 dereferenceable(8) %26, ptr noundef nonnull align 8 dereferenceable(408) %0)
  br label %33

30:                                               ; preds = %8
  %31 = load i64, ptr %9, align 8, !tbaa !65
  %32 = add i64 %31, %4
  br label %33

33:                                               ; preds = %30, %23
  %.0 = phi i64 [ 0, %23 ], [ %32, %30 ]
  call void @llvm.lifetime.end.p0(i64 8, ptr nonnull %9) #26
  ret i64 %.0
}